target datalayout = "e-m:e-p270:32:32-p271:32:32-p272:64:64-i64:64-i128:128-f80:128-n8:16:32:64-S128"
target triple = "x86_64-pc-linux-gnu"

%struct.t_atoms = type { i32, ptr, ptr, ptr, ptr, i32, ptr, ptr, i8, i8, i8, i8, i8 }
%struct.t_atom = type { float, float, float, float, i16, i16, i32, i32, i32, [4 x i8] }

; Function Attrs: mustprogress nounwind uwtable
define internal void @_ZL16average_residuesPdPS_iiPKiPKfPK7t_atoms(ptr noundef %0, ptr noundef %1, i32 noundef %2, i32 noundef %3, ptr noundef %4, ptr noundef %5, ptr noundef %6) #3 {
  %8 = alloca ptr, align 8
  %9 = alloca ptr, align 8
  %10 = alloca i32, align 4
  %11 = alloca i32, align 4
  %12 = alloca ptr, align 8
  %13 = alloca ptr, align 8
  %14 = alloca ptr, align 8
  %15 = alloca i32, align 4
  %16 = alloca i32, align 4
  %17 = alloca i32, align 4
  %18 = alloca double, align 8
  %19 = alloca double, align 8
  store ptr %0, ptr %8, align 8, !tbaa !78
  store ptr %1, ptr %9, align 8, !tbaa !58
  store i32 %2, ptr %10, align 4, !tbaa !4
  store i32 %3, ptr %11, align 4, !tbaa !4
  store ptr %4, ptr %12, align 8, !tbaa !51
  store ptr %5, ptr %13, align 8, !tbaa !12
  store ptr %6, ptr %14, align 8, !tbaa !65
  call void @llvm.lifetime.start.p0(i64 4, ptr %15) #16
  call void @llvm.lifetime.start.p0(i64 4, ptr %16) #16
  call void @llvm.lifetime.start.p0(i64 4, ptr %17) #16
  call void @llvm.lifetime.start.p0(i64 8, ptr %18) #16
  call void @llvm.lifetime.start.p0(i64 8, ptr %19) #16
  store i32 0, ptr %17, align 4, !tbaa !4
  store double 0.000000e+00, ptr %18, align 8, !tbaa !80
  store double 0.000000e+00, ptr %19, align 8, !tbaa !80
  %20 = load ptr, ptr %8, align 8, !tbaa !78
  %21 = icmp ne ptr %20, null
  br i1 %21, label %23, label %22

22:                                               ; preds = %7
  br label %23

23:                                               ; preds = %22, %7
  store i32 0, ptr %15, align 4, !tbaa !4
  br label %24

24:                                               ; preds = %150, %23
  %25 = load i32, ptr %15, align 4, !tbaa !4
  %26 = load i32, ptr %11, align 4, !tbaa !4
  %27 = icmp slt i32 %25, %26
  br i1 %27, label %28, label %153

28:                                               ; preds = %24
  %29 = load ptr, ptr %13, align 8, !tbaa !12
  %30 = load ptr, ptr %12, align 8, !tbaa !51
  %31 = load i32, ptr %15, align 4, !tbaa !4
  %32 = sext i32 %31 to i64
  %33 = getelementptr inbounds i32, ptr %30, i64 %32
  %34 = load i32, ptr %33, align 4, !tbaa !4
  %35 = sext i32 %34 to i64
  %36 = getelementptr inbounds float, ptr %29, i64 %35
  %37 = load float, ptr %36, align 4, !tbaa !14
  %38 = fpext float %37 to double
  %39 = load ptr, ptr %8, align 8, !tbaa !78
  %40 = icmp ne ptr %39, null
  br i1 %40, label %41, label %47

41:                                               ; preds = %28
  %42 = load ptr, ptr %8, align 8, !tbaa !78
  %43 = load i32, ptr %15, align 4, !tbaa !4
  %44 = sext i32 %43 to i64
  %45 = getelementptr inbounds double, ptr %42, i64 %44
  %46 = load double, ptr %45, align 8, !tbaa !80
  br label %57

47:                                               ; preds = %28
  %48 = load ptr, ptr %9, align 8, !tbaa !58
  %49 = load i32, ptr %15, align 4, !tbaa !4
  %50 = sext i32 %49 to i64
  %51 = getelementptr inbounds ptr, ptr %48, i64 %50
  %52 = load ptr, ptr %51, align 8, !tbaa !78
  %53 = load i32, ptr %10, align 4, !tbaa !4
  %54 = sext i32 %53 to i64
  %55 = getelementptr inbounds double, ptr %52, i64 %54
  %56 = load double, ptr %55, align 8, !tbaa !80
  br label %57

57:                                               ; preds = %47, %41
  %58 = phi double [ %46, %41 ], [ %56, %47 ]
  %59 = load double, ptr %18, align 8, !tbaa !80
  %60 = call double @llvm.fmuladd.f64(double %38, double %58, double %59)
  store double %60, ptr %18, align 8, !tbaa !80
  %61 = load ptr, ptr %13, align 8, !tbaa !12
  %62 = load ptr, ptr %12, align 8, !tbaa !51
  %63 = load i32, ptr %15, align 4, !tbaa !4
  %64 = sext i32 %63 to i64
  %65 = getelementptr inbounds i32, ptr %62, i64 %64
  %66 = load i32, ptr %65, align 4, !tbaa !4
  %67 = sext i32 %66 to i64
  %68 = getelementptr inbounds float, ptr %61, i64 %67
  %69 = load float, ptr %68, align 4, !tbaa !14
  %70 = fpext float %69 to double
  %71 = load double, ptr %19, align 8, !tbaa !80
  %72 = fadd double %71, %70
  store double %72, ptr %19, align 8, !tbaa !80
  %73 = load i32, ptr %15, align 4, !tbaa !4
  %74 = add nsw i32 %73, 1
  %75 = load i32, ptr %11, align 4, !tbaa !4
  %76 = icmp eq i32 %74, %75
  br i1 %76, label %104, label %77

77:                                               ; preds = %57
  %78 = load ptr, ptr %14, align 8, !tbaa !65
  %79 = getelementptr inbounds nuw %struct.t_atoms, ptr %78, i32 0, i32 1
  %80 = load ptr, ptr %79, align 8, !tbaa !142
  %81 = load ptr, ptr %12, align 8, !tbaa !51
  %82 = load i32, ptr %15, align 4, !tbaa !4
  %83 = sext i32 %82 to i64
  %84 = getelementptr inbounds i32, ptr %81, i64 %83
  %85 = load i32, ptr %84, align 4, !tbaa !4
  %86 = sext i32 %85 to i64
  %87 = getelementptr inbounds %struct.t_atom, ptr %80, i64 %86
  %88 = getelementptr inbounds nuw %struct.t_atom, ptr %87, i32 0, i32 7
  %89 = load i32, ptr %88, align 4, !tbaa !103
  %90 = load ptr, ptr %14, align 8, !tbaa !65
  %91 = getelementptr inbounds nuw %struct.t_atoms, ptr %90, i32 0, i32 1
  %92 = load ptr, ptr %91, align 8, !tbaa !142
  %93 = load ptr, ptr %12, align 8, !tbaa !51
  %94 = load i32, ptr %15, align 4, !tbaa !4
  %95 = add nsw i32 %94, 1
  %96 = sext i32 %95 to i64
  %97 = getelementptr inbounds i32, ptr %93, i64 %96
  %98 = load i32, ptr %97, align 4, !tbaa !4
  %99 = sext i32 %98 to i64
  %100 = getelementptr inbounds %struct.t_atom, ptr %92, i64 %99
  %101 = getelementptr inbounds nuw %struct.t_atom, ptr %100, i32 0, i32 7
  %102 = load i32, ptr %101, align 4, !tbaa !103
  %103 = icmp ne i32 %89, %102
  br i1 %103, label %104, label %149

104:                                              ; preds = %77, %57
  %105 = load double, ptr %19, align 8, !tbaa !80
  %106 = load double, ptr %18, align 8, !tbaa !80
  %107 = fdiv double %106, %105
  store double %107, ptr %18, align 8, !tbaa !80
  %108 = load ptr, ptr %8, align 8, !tbaa !78
  %109 = icmp ne ptr %108, null
  br i1 %109, label %110, label %126

110:                                              ; preds = %104
  %111 = load i32, ptr %17, align 4, !tbaa !4
  store i32 %111, ptr %16, align 4, !tbaa !4
  br label %112

112:                                              ; preds = %122, %110
  %113 = load i32, ptr %16, align 4, !tbaa !4
  %114 = load i32, ptr %15, align 4, !tbaa !4
  %115 = icmp sle i32 %113, %114
  br i1 %115, label %116, label %125

116:                                              ; preds = %112
  %117 = load double, ptr %18, align 8, !tbaa !80
  %118 = load ptr, ptr %8, align 8, !tbaa !78
  %119 = load i32, ptr %15, align 4, !tbaa !4
  %120 = sext i32 %119 to i64
  %121 = getelementptr inbounds double, ptr %118, i64 %120
  store double %117, ptr %121, align 8, !tbaa !80
  br label %122

122:                                              ; preds = %116
  %123 = load i32, ptr %16, align 4, !tbaa !4
  %124 = add nsw i32 %123, 1
  store i32 %124, ptr %16, align 4, !tbaa !4
  br label %112, !llvm.loop !143

125:                                              ; preds = %112
  br label %146

126:                                              ; preds = %104
  %127 = load i32, ptr %17, align 4, !tbaa !4
  store i32 %127, ptr %16, align 4, !tbaa !4
  br label %128

128:                                              ; preds = %142, %126
  %129 = load i32, ptr %16, align 4, !tbaa !4
  %130 = load i32, ptr %15, align 4, !tbaa !4
  %131 = icmp sle i32 %129, %130
  br i1 %131, label %132, label %145

132:                                              ; preds = %128
  %133 = load double, ptr %18, align 8, !tbaa !80
  %134 = load ptr, ptr %9, align 8, !tbaa !58
  %135 = load i32, ptr %16, align 4, !tbaa !4
  %136 = sext i32 %135 to i64
  %137 = getelementptr inbounds ptr, ptr %134, i64 %136
  %138 = load ptr, ptr %137, align 8, !tbaa !78
  %139 = load i32, ptr %10, align 4, !tbaa !4
  %140 = sext i32 %139 to i64
  %141 = getelementptr inbounds double, ptr %138, i64 %140
  store double %133, ptr %141, align 8, !tbaa !80
  br label %142

142:                                              ; preds = %132
  %143 = load i32, ptr %16, align 4, !tbaa !4
  %144 = add nsw i32 %143, 1
  store i32 %144, ptr %16, align 4, !tbaa !4
  br label %128, !llvm.loop !144

145:                                              ; preds = %128
  br label %146

146:                                              ; preds = %145, %125
  %147 = load i32, ptr %15, align 4, !tbaa !4
  %148 = add nsw i32 %147, 1
  store i32 %148, ptr %17, align 4, !tbaa !4
  store double 0.000000e+00, ptr %18, align 8, !tbaa !80
  store double 0.000000e+00, ptr %19, align 8, !tbaa !80
  br label %149

149:                                              ; preds = %146, %77
  br label %150

150:                                              ; preds = %149
  %151 = load i32, ptr %15, align 4, !tbaa !4
  %152 = add nsw i32 %151, 1
  store i32 %152, ptr %15, align 4, !tbaa !4
  br label %24, !llvm.loop !145

153:                                              ; preds = %24
  call void @llvm.lifetime.end.p0(i64 8, ptr %19) #16
  call void @llvm.lifetime.end.p0(i64 8, ptr %18) #16
  call void @llvm.lifetime.end.p0(i64 4, ptr %17) #16
  call void @llvm.lifetime.end.p0(i64 4, ptr %16) #16
  call void @llvm.lifetime.end.p0(i64 4, ptr %15) #16
  ret void
}