; Function Attrs: mustprogress nofree norecurse nosync nounwind memory(readwrite, inaccessiblemem: none) uwtable
define internal fastcc void @_ZL16average_residuesPdPS_iiPKiPKfPK7t_atoms(ptr noundef %0, ptr noundef readonly captures(none) %1, i32 noundef range(i32 -2147483648, 9) %2, i32 noundef %3, ptr noundef readonly captures(none) %4, ptr noundef readonly captures(none) %5, ptr readonly captures(none) %.8.val) unnamed_addr #8 {
  %7 = icmp sgt i32 %3, 0
  br i1 %7, label %.lr.ph12, label %._crit_edge

.lr.ph12:                                         ; preds = %6
  %.not = icmp eq ptr %0, null
  %8 = sext i32 %2 to i64
  %9 = zext nneg i32 %3 to i64
  br i1 %.not, label %.lr.ph12.split.us, label %.lr.ph12.split

.lr.ph12.split.us:                                ; preds = %.lr.ph12, %.loopexit.us
  %indvars.iv21 = phi i64 [ %indvars.iv.next22, %.loopexit.us ], [ 0, %.lr.ph12 ]
  %indvars.iv18 = phi i32 [ %indvars.iv.next19, %.loopexit.us ], [ 1, %.lr.ph12 ]
  %.011.us = phi double [ %.1.us, %.loopexit.us ], [ 0.000000e+00, %.lr.ph12 ]
  %.04410.us = phi double [ %.145.us, %.loopexit.us ], [ 0.000000e+00, %.lr.ph12 ]
  %.0469.us = phi i32 [ %.147.us, %.loopexit.us ], [ 0, %.lr.ph12 ]
  %10 = getelementptr inbounds nuw i32, ptr %4, i64 %indvars.iv21
  %11 = load i32, ptr %10, align 4, !tbaa !4
  %12 = sext i32 %11 to i64
  %13 = getelementptr inbounds float, ptr %5, i64 %12
  %14 = load float, ptr %13, align 4, !tbaa !57
  %15 = fpext float %14 to double
  %16 = getelementptr inbounds nuw ptr, ptr %1, i64 %indvars.iv21
  %17 = load ptr, ptr %16, align 8, !tbaa !60
  %18 = getelementptr inbounds double, ptr %17, i64 %8
  %19 = load double, ptr %18, align 8, !tbaa !79
  %20 = tail call double @llvm.fmuladd.f64(double %15, double %19, double %.04410.us)
  %21 = fadd double %.011.us, %15
  %indvars.iv.next22 = add nuw nsw i64 %indvars.iv21, 1
  %22 = icmp eq i64 %indvars.iv.next22, %9
  br i1 %22, label %.preheader.us, label %23

23:                                               ; preds = %.lr.ph12.split.us
  %24 = getelementptr inbounds %struct.t_atom, ptr %.8.val, i64 %12, i32 7
  %25 = load i32, ptr %24, align 4, !tbaa !94
  %26 = getelementptr inbounds nuw i32, ptr %4, i64 %indvars.iv.next22
  %27 = load i32, ptr %26, align 4, !tbaa !4
  %28 = sext i32 %27 to i64
  %29 = getelementptr inbounds %struct.t_atom, ptr %.8.val, i64 %28, i32 7
  %30 = load i32, ptr %29, align 4, !tbaa !94
  %.not55.us = icmp eq i32 %25, %30
  br i1 %.not55.us, label %.loopexit.us, label %.preheader.us

.preheader.us:                                    ; preds = %23, %.lr.ph12.split.us
  %31 = fdiv double %20, %21
  %32 = sext i32 %.0469.us to i64
  %.not565.us = icmp slt i64 %indvars.iv21, %32
  %33 = trunc nuw nsw i64 %indvars.iv.next22 to i32
  br i1 %.not565.us, label %.loopexit.us, label %.lr.ph7.us

.lr.ph7.us:                                       ; preds = %.preheader.us, %.lr.ph7.us
  %indvars.iv15 = phi i64 [ %indvars.iv.next16, %.lr.ph7.us ], [ %32, %.preheader.us ]
  %34 = getelementptr inbounds ptr, ptr %1, i64 %indvars.iv15
  %35 = load ptr, ptr %34, align 8, !tbaa !60
  %36 = getelementptr inbounds double, ptr %35, i64 %8
  store double %31, ptr %36, align 8, !tbaa !79
  %indvars.iv.next16 = add nsw i64 %indvars.iv15, 1
  %lftr.wideiv = trunc i64 %indvars.iv.next16 to i32
  %exitcond20.not = icmp eq i32 %indvars.iv18, %lftr.wideiv
  br i1 %exitcond20.not, label %.loopexit.us, label %.lr.ph7.us, !llvm.loop !95

.loopexit.us:                                     ; preds = %.lr.ph7.us, %.preheader.us, %23
  %.147.us = phi i32 [ %.0469.us, %23 ], [ %33, %.preheader.us ], [ %33, %.lr.ph7.us ]
  %.145.us = phi double [ %20, %23 ], [ 0.000000e+00, %.preheader.us ], [ 0.000000e+00, %.lr.ph7.us ]
  %.1.us = phi double [ %21, %23 ], [ 0.000000e+00, %.preheader.us ], [ 0.000000e+00, %.lr.ph7.us ]
  %indvars.iv.next19 = add nuw i32 %indvars.iv18, 1
  %exitcond25.not = icmp eq i64 %indvars.iv.next22, %9
  br i1 %exitcond25.not, label %._crit_edge, label %.lr.ph12.split.us, !llvm.loop !96

.lr.ph12.split:                                   ; preds = %.lr.ph12, %.loopexit2
  %indvars.iv = phi i64 [ %indvars.iv.next, %.loopexit2 ], [ 0, %.lr.ph12 ]
  %.011 = phi double [ %.1, %.loopexit2 ], [ 0.000000e+00, %.lr.ph12 ]
  %.04410 = phi double [ %.145, %.loopexit2 ], [ 0.000000e+00, %.lr.ph12 ]
  %.0469 = phi i32 [ %.147, %.loopexit2 ], [ 0, %.lr.ph12 ]
  %37 = getelementptr inbounds nuw i32, ptr %4, i64 %indvars.iv
  %38 = load i32, ptr %37, align 4, !tbaa !4
  %39 = sext i32 %38 to i64
  %40 = getelementptr inbounds float, ptr %5, i64 %39
  %41 = load float, ptr %40, align 4, !tbaa !57
  %42 = fpext float %41 to double
  %43 = getelementptr inbounds nuw double, ptr %0, i64 %indvars.iv
  %44 = load double, ptr %43, align 8, !tbaa !79
  %45 = tail call double @llvm.fmuladd.f64(double %42, double %44, double %.04410)
  %46 = fadd double %.011, %42
  %indvars.iv.next = add nuw nsw i64 %indvars.iv, 1
  %47 = icmp eq i64 %indvars.iv.next, %9
  br i1 %47, label %.preheader1, label %48

48:                                               ; preds = %.lr.ph12.split
  %49 = getelementptr inbounds %struct.t_atom, ptr %.8.val, i64 %39, i32 7
  %50 = load i32, ptr %49, align 4, !tbaa !94
  %51 = getelementptr inbounds nuw i32, ptr %4, i64 %indvars.iv.next
  %52 = load i32, ptr %51, align 4, !tbaa !4
  %53 = sext i32 %52 to i64
  %54 = getelementptr inbounds %struct.t_atom, ptr %.8.val, i64 %53, i32 7
  %55 = load i32, ptr %54, align 4, !tbaa !94
  %.not55 = icmp eq i32 %50, %55
  br i1 %.not55, label %.loopexit2, label %.preheader1

.preheader1:                                      ; preds = %48, %.lr.ph12.split
  %56 = sext i32 %.0469 to i64
  %.not573 = icmp slt i64 %indvars.iv, %56
  %57 = trunc nuw nsw i64 %indvars.iv.next to i32
  br i1 %.not573, label %.loopexit2, label %.lr.ph

.lr.ph:                                           ; preds = %.preheader1
  %58 = fdiv double %45, %46
  store double %58, ptr %43, align 8, !tbaa !79
  br label %.loopexit2

.loopexit2:                                       ; preds = %.lr.ph, %.preheader1, %48
  %.147 = phi i32 [ %.0469, %48 ], [ %57, %.preheader1 ], [ %57, %.lr.ph ]
  %.145 = phi double [ %45, %48 ], [ 0.000000e+00, %.preheader1 ], [ 0.000000e+00, %.lr.ph ]
  %.1 = phi double [ %46, %48 ], [ 0.000000e+00, %.preheader1 ], [ 0.000000e+00, %.lr.ph ]
  %exitcond.not = icmp eq i64 %indvars.iv.next, %9
  br i1 %exitcond.not, label %._crit_edge, label %.lr.ph12.split, !llvm.loop !96

._crit_edge:                                      ; preds = %.loopexit2, %.loopexit.us, %6
  ret void
}